; Function Attrs: nounwind uwtable
define hidden noundef i32 @ps_close_files(ptr noundef captures(none) %0) #0 {
  %2 = load ptr, ptr %0, align 8, !tbaa !24
  %3 = getelementptr inbounds nuw i8, ptr %2, i64 36
  %4 = load i32, ptr %3, align 4, !tbaa !12
  %.not.i10 = icmp eq i32 %4, -1
  br i1 %.not.i10, label %ps_files_close.exit, label %5

5:                                                ; preds = %1
  %6 = tail call i32 @close(i32 noundef %4) #15
  store i32 -1, ptr %3, align 4, !tbaa !12
  br label %ps_files_close.exit

ps_files_close.exit:                              ; preds = %1, %5
  %7 = load ptr, ptr %2, align 8, !tbaa !25
  %.not = icmp eq ptr %7, null
  br i1 %.not, label %18, label %8

8:                                                ; preds = %ps_files_close.exit
  %9 = getelementptr inbounds nuw i8, ptr %7, i64 4
  %10 = load i32, ptr %9, align 4, !tbaa !4
  %11 = and i32 %10, 64
  %.not.i = icmp eq i32 %11, 0
  br i1 %.not.i, label %12, label %zend_string_release_ex.exit

12:                                               ; preds = %8
  %13 = load i32, ptr %7, align 4, !tbaa !18
  %14 = icmp ne i32 %13, 0
  tail call void @llvm.assume(i1 %14)
  %15 = add i32 %13, -1
  store i32 %15, ptr %7, align 4, !tbaa !18
  %16 = icmp eq i32 %15, 0
  br i1 %16, label %17, label %zend_string_release_ex.exit

17:                                               ; preds = %12
  tail call void @_efree(ptr noundef nonnull %7) #15
  br label %zend_string_release_ex.exit

zend_string_release_ex.exit:                      ; preds = %8, %12, %17
  store ptr null, ptr %2, align 8, !tbaa !25
  br label %18

18:                                               ; preds = %zend_string_release_ex.exit, %ps_files_close.exit
  %19 = getelementptr inbounds nuw i8, ptr %2, i64 8
  %20 = load ptr, ptr %19, align 8, !tbaa !23
  %21 = getelementptr inbounds nuw i8, ptr %20, i64 4
  %22 = load i32, ptr %21, align 4, !tbaa !4
  %23 = and i32 %22, 64
  %.not.i8 = icmp eq i32 %23, 0
  br i1 %.not.i8, label %24, label %zend_string_release_ex.exit9

24:                                               ; preds = %18
  %25 = load i32, ptr %20, align 4, !tbaa !18
  %26 = icmp ne i32 %25, 0
  tail call void @llvm.assume(i1 %26)
  %27 = add i32 %25, -1
  store i32 %27, ptr %20, align 4, !tbaa !18
  %28 = icmp eq i32 %27, 0
  br i1 %28, label %29, label %zend_string_release_ex.exit9

29:                                               ; preds = %24
  tail call void @_efree(ptr noundef nonnull %20) #15
  br label %zend_string_release_ex.exit9

zend_string_release_ex.exit9:                     ; preds = %18, %24, %29
  tail call void @_efree(ptr noundef nonnull %2) #15
  store ptr null, ptr %0, align 8, !tbaa !24
  ret i32 0
}